target datalayout = "e-m:e-p270:32:32-p271:32:32-p272:64:64-i64:64-i128:128-f80:128-n8:16:32:64-S128"
target triple = "x86_64-pc-linux-gnu"

%struct.AVRational = type { i32, i32 }
%struct.AVBSFContext = type { ptr, ptr, ptr, ptr, ptr, %struct.AVRational, %struct.AVRational }
%struct.PCMContext = type { ptr, i32, i32, %struct.AVRational, ptr, ptr, i32, i64 }

; Function Attrs: nounwind uwtable
define internal void @flush(ptr noundef %0) #0 {
  %2 = alloca ptr, align 8
  %3 = alloca ptr, align 8
  store ptr %0, ptr %2, align 8, !tbaa !4
  call void @llvm.lifetime.start.p0(i64 8, ptr %3) #9
  %4 = load ptr, ptr %2, align 8, !tbaa !4
  %5 = getelementptr inbounds nuw %struct.AVBSFContext, ptr %4, i32 0, i32 2
  %6 = load ptr, ptr %5, align 8, !tbaa !9
  store ptr %6, ptr %3, align 8, !tbaa !16
  %7 = load ptr, ptr %3, align 8, !tbaa !16
  %8 = getelementptr inbounds nuw %struct.PCMContext, ptr %7, i32 0, i32 4
  %9 = load ptr, ptr %8, align 8, !tbaa !35
  call void @av_packet_unref(ptr noundef %9)
  %10 = load ptr, ptr %3, align 8, !tbaa !16
  %11 = getelementptr inbounds nuw %struct.PCMContext, ptr %10, i32 0, i32 5
  %12 = load ptr, ptr %11, align 8, !tbaa !36
  call void @av_packet_unref(ptr noundef %12)
  %13 = load ptr, ptr %3, align 8, !tbaa !16
  %14 = getelementptr inbounds nuw %struct.PCMContext, ptr %13, i32 0, i32 7
  store i64 0, ptr %14, align 8, !tbaa !45
  call void @llvm.lifetime.end.p0(i64 8, ptr %3) #9
  ret void
}