; Function Attrs: nounwind uwtable
define internal void @flush(ptr noundef readonly captures(none) %0) #0 {
  %2 = getelementptr inbounds nuw i8, ptr %0, i64 16
  %3 = load ptr, ptr %2, align 8, !tbaa !4
  %4 = getelementptr inbounds nuw i8, ptr %3, i64 24
  %5 = load ptr, ptr %4, align 8, !tbaa !28
  tail call void @av_packet_unref(ptr noundef %5) #7
  %6 = getelementptr inbounds nuw i8, ptr %3, i64 32
  %7 = load ptr, ptr %6, align 8, !tbaa !29
  tail call void @av_packet_unref(ptr noundef %7) #7
  %8 = getelementptr inbounds nuw i8, ptr %3, i64 48
  store i64 0, ptr %8, align 8, !tbaa !30
  ret void
}